; Function Attrs: mustprogress uwtable
define hidden void @_ZN4cvc58internal20FloatingPointLiteralC2EjjRKNS0_9BitVectorE(ptr noundef nonnull align 8 dereferenceable(64) %0, i32 noundef %1, i32 noundef %2, ptr noundef nonnull align 8 dereferenceable(24) %3) unnamed_addr #4 align 2 personality ptr @__gxx_personality_v0 {
  %5 = alloca %"class.cvc5::internal::FloatingPointSize", align 4
  %6 = alloca %"class.cvc5::internal::symfpuLiteral::wrappedBitVector.0", align 8
  tail call void @_ZN4cvc58internal17FloatingPointSizeC1Ejj(ptr noundef nonnull align 4 dereferenceable(8) %0, i32 noundef %1, i32 noundef %2)
  %7 = getelementptr inbounds nuw i8, ptr %0, i64 8
  call void @_ZN4cvc58internal17FloatingPointSizeC1Ejj(ptr noundef nonnull align 4 dereferenceable(8) %5, i32 noundef %1, i32 noundef %2)
  call void @llvm.lifetime.start.p0(i64 24, ptr nonnull %6) #16
  %8 = load i32, ptr %3, align 8, !tbaa !9
  store i32 %8, ptr %6, align 8, !tbaa !9
  %9 = getelementptr inbounds nuw i8, ptr %6, i64 8
  %10 = getelementptr inbounds nuw i8, ptr %3, i64 8
  call void @__gmpz_init_set(ptr noundef nonnull align 8 dereferenceable(16) %9, ptr noundef nonnull align 8 dereferenceable(16) %10)
  invoke void @_ZN6symfpu6unpackIN4cvc58internal13symfpuLiteral6traitsEEENS_13unpackedFloatIT_EENS6_3fptERKNS6_3ubvE(ptr dead_on_unwind nonnull writable sret(%"class.symfpu::unpackedFloat") align 8 %7, ptr noundef nonnull %5, ptr noundef nonnull align 8 dereferenceable(24) %6)
          to label %11 unwind label %15

11:                                               ; preds = %4
  invoke void @__gmpz_clear(ptr noundef nonnull align 8 dereferenceable(16) %9)
          to label %_ZN4cvc58internal9BitVectorD2Ev.exit unwind label %12

12:                                               ; preds = %11
  %13 = landingpad { ptr, i32 }
          catch ptr null
  %14 = extractvalue { ptr, i32 } %13, 0
  call void @__clang_call_terminate(ptr %14) #17
  unreachable

_ZN4cvc58internal9BitVectorD2Ev.exit:             ; preds = %11
  call void @llvm.lifetime.end.p0(i64 24, ptr nonnull %6) #16
  ret void

15:                                               ; preds = %4
  %16 = landingpad { ptr, i32 }
          cleanup
  invoke void @__gmpz_clear(ptr noundef nonnull align 8 dereferenceable(16) %9)
          to label %_ZN4cvc58internal9BitVectorD2Ev.exit7 unwind label %17

17:                                               ; preds = %15
  %18 = landingpad { ptr, i32 }
          catch ptr null
  %19 = extractvalue { ptr, i32 } %18, 0
  call void @__clang_call_terminate(ptr %19) #17
  unreachable

_ZN4cvc58internal9BitVectorD2Ev.exit7:            ; preds = %15
  call void @llvm.lifetime.end.p0(i64 24, ptr nonnull %6) #16
  resume { ptr, i32 } %16
}